(lp0
cnumpy.core.multiarray
scalar
p1
(cnumpy
dtype
p2
(S'f4'
p3
I0
I1
tp4
Rp5
(I3
S'<'
p6
NNNI-1
I-1
I0
tp7
bS'o\x12\x83:'
p8
tp9
Rp10
ag1
(g5
S'o\x12\x83:'
p11
tp12
Rp13
ag1
(g5
S'o\x12\x83:'
p14
tp15
Rp16
ag1
(g5
S'o\x12\x83:'
p17
tp18
Rp19
ag1
(g5
S'o\x12\x83:'
p20
tp21
Rp22
ag1
(g5
S'o\x12\x83:'
p23
tp24
Rp25
ag1
(g5
S'o\x12\x83:'
p26
tp27
Rp28
ag1
(g5
S'o\x12\x83:'
p29
tp30
Rp31
ag1
(g5
S'o\x12\x83:'
p32
tp33
Rp34
ag1
(g5
S'o\x12\x83:'
p35
tp36
Rp37
ag1
(g5
S'o\x12\x83:'
p38
tp39
Rp40
ag1
(g5
S'o\x12\x83:'
p41
tp42
Rp43
ag1
(g5
S'o\x12\x83:'
p44
tp45
Rp46
ag1
(g5
S'o\x12\x83:'
p47
tp48
Rp49
ag1
(g5
S'o\x12\x83:'
p50
tp51
Rp52
ag1
(g5
S'o\x12\x83:'
p53
tp54
Rp55
ag1
(g5
S'o\x12\x83:'
p56
tp57
Rp58
ag1
(g5
S'o\x12\x83:'
p59
tp60
Rp61
ag1
(g5
S'o\x12\x83:'
p62
tp63
Rp64
ag1
(g5
S'o\x12\x83:'
p65
tp66
Rp67
ag1
(g5
S'o\x12\x83:'
p68
tp69
Rp70
ag1
(g5
S'o\x12\x83:'
p71
tp72
Rp73
ag1
(g5
S'o\x12\x83:'
p74
tp75
Rp76
ag1
(g5
S'o\x12\x83:'
p77
tp78
Rp79
ag1
(g5
S'o\x12\x83:'
p80
tp81
Rp82
ag1
(g5
S'o\x12\x83:'
p83
tp84
Rp85
ag1
(g5
S'o\x12\x83:'
p86
tp87
Rp88
ag1
(g5
S'o\x12\x83:'
p89
tp90
Rp91
ag1
(g5
S'o\x12\x83:'
p92
tp93
Rp94
ag1
(g5
S'o\x12\x83:'
p95
tp96
Rp97
ag1
(g5
S'o\x12\x83:'
p98
tp99
Rp100
ag1
(g5
S'o\x12\x83:'
p101
tp102
Rp103
ag1
(g5
S'o\x12\x83:'
p104
tp105
Rp106
ag1
(g5
S'o\x12\x83:'
p107
tp108
Rp109
ag1
(g5
S'o\x12\x83:'
p110
tp111
Rp112
ag1
(g5
S'o\x12\x83:'
p113
tp114
Rp115
ag1
(g5
S'o\x12\x83:'
p116
tp117
Rp118
ag1
(g5
S'o\x12\x83:'
p119
tp120
Rp121
ag1
(g5
S'o\x12\x83:'
p122
tp123
Rp124
ag1
(g5
S'o\x12\x83:'
p125
tp126
Rp127
ag1
(g5
S'o\x12\x83:'
p128
tp129
Rp130
ag1
(g5
S'o\x12\x83:'
p131
tp132
Rp133
ag1
(g5
S'o\x12\x83:'
p134
tp135
Rp136
ag1
(g5
S'o\x12\x83:'
p137
tp138
Rp139
ag1
(g5
S'o\x12\x83:'
p140
tp141
Rp142
ag1
(g5
S'o\x12\x83:'
p143
tp144
Rp145
ag1
(g5
S'o\x12\x83:'
p146
tp147
Rp148
ag1
(g5
S'o\x12\x83:'
p149
tp150
Rp151
ag1
(g5
S'o\x12\x83:'
p152
tp153
Rp154
ag1
(g5
S'o\x12\x83:'
p155
tp156
Rp157
a.